target datalayout = "e-m:e-p270:32:32-p271:32:32-p272:64:64-i64:64-i128:128-f80:128-n8:16:32:64-S128"
target triple = "x86_64-pc-linux-gnu"

%struct.CSzCoderInfo = type { i32, i32, i64, %struct.CBuf }
%struct.CBuf = type { ptr, i64 }
%struct.CSzFolder = type { ptr, ptr, ptr, ptr, i32, i32, i32, i32, i32, i32 }

; Function Attrs: nounwind uwtable
define i32 @SzFolder_GetNumOutStreams(ptr noundef %0) #0 {
  %2 = alloca ptr, align 8
  %3 = alloca i32, align 4
  %4 = alloca i32, align 4
  store ptr %0, ptr %2, align 8
  store i32 0, ptr %3, align 4
  store i32 0, ptr %4, align 4
  br label %5

5:                                                ; preds = %22, %1
  %6 = load i32, ptr %4, align 4
  %7 = load ptr, ptr %2, align 8
  %8 = getelementptr inbounds %struct.CSzFolder, ptr %7, i32 0, i32 4
  %9 = load i32, ptr %8, align 8
  %10 = icmp ult i32 %6, %9
  br i1 %10, label %11, label %25

11:                                               ; preds = %5
  %12 = load ptr, ptr %2, align 8
  %13 = getelementptr inbounds %struct.CSzFolder, ptr %12, i32 0, i32 0
  %14 = load ptr, ptr %13, align 8
  %15 = load i32, ptr %4, align 4
  %16 = zext i32 %15 to i64
  %17 = getelementptr inbounds %struct.CSzCoderInfo, ptr %14, i64 %16
  %18 = getelementptr inbounds %struct.CSzCoderInfo, ptr %17, i32 0, i32 1
  %19 = load i32, ptr %18, align 4
  %20 = load i32, ptr %3, align 4
  %21 = add i32 %20, %19
  store i32 %21, ptr %3, align 4
  br label %22

22:                                               ; preds = %11
  %23 = load i32, ptr %4, align 4
  %24 = add i32 %23, 1
  store i32 %24, ptr %4, align 4
  br label %5

25:                                               ; preds = %5
  %26 = load i32, ptr %3, align 4
  ret i32 %26
}