; Function Attrs: nofree norecurse nosync nounwind memory(read, inaccessiblemem: none) uwtable
define i32 @SzFolder_GetNumOutStreams(ptr noundef readonly captures(none) %0) local_unnamed_addr #3 {
  %2 = getelementptr inbounds nuw i8, ptr %0, i64 32
  %3 = load i32, ptr %2, align 8
  %.not = icmp eq i32 %3, 0
  br i1 %.not, label %._crit_edge, label %.lr.ph

.lr.ph:                                           ; preds = %1
  %4 = load ptr, ptr %0, align 8
  %wide.trip.count = zext i32 %3 to i64
  br label %5

5:                                                ; preds = %.lr.ph, %5
  %indvars.iv = phi i64 [ 0, %.lr.ph ], [ %indvars.iv.next, %5 ]
  %.067 = phi i32 [ 0, %.lr.ph ], [ %8, %5 ]
  %6 = getelementptr inbounds nuw %struct.CSzCoderInfo, ptr %4, i64 %indvars.iv, i32 1
  %7 = load i32, ptr %6, align 4
  %8 = add i32 %7, %.067
  %indvars.iv.next = add nuw nsw i64 %indvars.iv, 1
  %exitcond.not = icmp eq i64 %indvars.iv.next, %wide.trip.count
  br i1 %exitcond.not, label %._crit_edge, label %5

._crit_edge:                                      ; preds = %5, %1
  %.06.lcssa = phi i32 [ 0, %1 ], [ %8, %5 ]
  ret i32 %.06.lcssa
}